target datalayout = "e-m:e-p270:32:32-p271:32:32-p272:64:64-i64:64-i128:128-f80:128-n8:16:32:64-S128"
target triple = "x86_64-pc-linux-gnu"

; Function Attrs: nounwind uwtable
define internal i32 @bio_bufferevent_free(ptr noundef %0) #0 {
  %2 = alloca i32, align 4
  %3 = alloca ptr, align 8
  store ptr %0, ptr %3, align 8
  %4 = load ptr, ptr %3, align 8
  %5 = icmp ne ptr %4, null
  br i1 %5, label %7, label %6

6:                                                ; preds = %1
  store i32 0, ptr %2, align 4
  br label %26

7:                                                ; preds = %1
  %8 = load ptr, ptr %3, align 8
  %9 = call i32 @BIO_get_shutdown(ptr noundef %8)
  %10 = icmp ne i32 %9, 0
  br i1 %10, label %11, label %25

11:                                               ; preds = %7
  %12 = load ptr, ptr %3, align 8
  %13 = call i32 @BIO_get_init(ptr noundef %12)
  %14 = icmp ne i32 %13, 0
  br i1 %14, label %15, label %22

15:                                               ; preds = %11
  %16 = load ptr, ptr %3, align 8
  %17 = call ptr @BIO_get_data(ptr noundef %16)
  %18 = icmp ne ptr %17, null
  br i1 %18, label %19, label %22

19:                                               ; preds = %15
  %20 = load ptr, ptr %3, align 8
  %21 = call ptr @BIO_get_data(ptr noundef %20)
  call void @bufferevent_free(ptr noundef %21)
  br label %22

22:                                               ; preds = %19, %15, %11
  %23 = load ptr, ptr %3, align 8
  %24 = call i32 @BIO_free(ptr noundef %23)
  br label %25

25:                                               ; preds = %22, %7
  store i32 1, ptr %2, align 4
  br label %26

26:                                               ; preds = %25, %6
  %27 = load i32, ptr %2, align 4
  ret i32 %27
}