; Function Attrs: nounwind uwtable
define internal range(i32 0, 2) i32 @bio_bufferevent_free(ptr noundef %0) #0 {
  %.not = icmp eq ptr %0, null
  br i1 %.not, label %12, label %2

2:                                                ; preds = %1
  %3 = tail call i32 @BIO_get_shutdown(ptr noundef nonnull %0) #5
  %.not7 = icmp eq i32 %3, 0
  br i1 %.not7, label %12, label %4

4:                                                ; preds = %2
  %5 = tail call i32 @BIO_get_init(ptr noundef nonnull %0) #5
  %.not8 = icmp eq i32 %5, 0
  br i1 %.not8, label %10, label %6

6:                                                ; preds = %4
  %7 = tail call ptr @BIO_get_data(ptr noundef nonnull %0) #5
  %.not9 = icmp eq ptr %7, null
  br i1 %.not9, label %10, label %8

8:                                                ; preds = %6
  %9 = tail call ptr @BIO_get_data(ptr noundef nonnull %0) #5
  tail call void @bufferevent_free(ptr noundef %9) #5
  br label %10

10:                                               ; preds = %8, %6, %4
  %11 = tail call i32 @BIO_free(ptr noundef nonnull %0) #5
  br label %12

12:                                               ; preds = %2, %10, %1
  %.0 = phi i32 [ 0, %1 ], [ 1, %10 ], [ 1, %2 ]
  ret i32 %.0
}